; Function Attrs: nounwind sspstrong uwtable
define dso_local void @vec_gen_2(i32 noundef %opc, i32 noundef %type, i32 noundef %vece, i64 noundef %r, i64 noundef %a) local_unnamed_addr #0 {
entry:
  %call = tail call ptr @tcg_emit_op(i32 noundef %opc, i32 noundef 2) #5
  %bf.load = load i32, ptr %call, align 8
  %sub = shl i32 %type, 16
  %bf.value = add i32 %sub, 16580608
  %bf.clear = and i32 %bf.load, 65535
  %bf.value2 = shl i32 %vece, 24
  %bf.value.masked = and i32 %bf.value, 16711680
  %bf.clear4 = or disjoint i32 %bf.value.masked, %bf.clear
  %bf.set5 = or disjoint i32 %bf.clear4, %bf.value2
  store i32 %bf.set5, ptr %call, align 8
  %args = getelementptr inbounds nuw i8, ptr %call, i64 32
  store i64 %r, ptr %args, align 8
  %arrayidx7 = getelementptr i8, ptr %call, i64 40
  store i64 %a, ptr %arrayidx7, align 8
  ret void
}